; Function Attrs: inlinehint nounwind uwtable
define internal fastcc void @put_mb_modes(ptr noundef captures(none) %0, i32 noundef range(i32 -2147483642, -2147483648) %1, i32 noundef range(i32 1, 4) %2, i32 noundef range(i32 0, 2) %3, i32 noundef range(i32 0, 2) %4) unnamed_addr #2 {
  %6 = getelementptr inbounds nuw i8, ptr %0, i64 4808
  %7 = load i32, ptr %6, align 8, !tbaa !53
  %8 = getelementptr inbounds nuw i8, ptr %0, i64 4812
  %9 = load i32, ptr %8, align 4, !tbaa !52
  %10 = icmp slt i32 %1, %9
  br i1 %10, label %11, label %15

11:                                               ; preds = %5
  %12 = shl i32 %7, %1
  %13 = or i32 %12, %2
  %14 = sub nsw i32 %9, %1
  br label %put_bits.exit

15:                                               ; preds = %5
  %16 = getelementptr inbounds nuw i8, ptr %0, i64 4832
  %17 = load ptr, ptr %16, align 8, !tbaa !54
  %18 = getelementptr inbounds nuw i8, ptr %0, i64 4824
  %19 = load ptr, ptr %18, align 8, !tbaa !55
  %20 = ptrtoint ptr %17 to i64
  %21 = ptrtoint ptr %19 to i64
  %22 = sub i64 %20, %21
  %23 = icmp ugt i64 %22, 3
  br i1 %23, label %24, label %32

24:                                               ; preds = %15
  %25 = shl i32 %7, %9
  %26 = sub nsw i32 %1, %9
  %27 = lshr i32 %2, %26
  %28 = or i32 %27, %25
  %29 = tail call i32 @llvm.bswap.i32(i32 %28)
  store i32 %29, ptr %19, align 1, !tbaa !4
  %30 = load ptr, ptr %18, align 8, !tbaa !55
  %31 = getelementptr inbounds nuw i8, ptr %30, i64 4
  store ptr %31, ptr %18, align 8, !tbaa !55
  br label %33

32:                                               ; preds = %15
  tail call void (ptr, i32, ptr, ...) @av_log(ptr noundef null, i32 noundef 16, ptr noundef nonnull @.str.5) #10
  br label %33

33:                                               ; preds = %32, %24
  %reass.sub = sub i32 %9, %1
  %34 = add i32 %reass.sub, 32
  br label %put_bits.exit

put_bits.exit:                                    ; preds = %11, %33
  %.026.i.i = phi i32 [ %13, %11 ], [ %2, %33 ]
  %.0.i.i = phi i32 [ %14, %11 ], [ %34, %33 ]
  store i32 %.026.i.i, ptr %6, align 8, !tbaa !53
  store i32 %.0.i.i, ptr %8, align 4, !tbaa !52
  %35 = getelementptr inbounds nuw i8, ptr %0, i64 4220
  %36 = load i32, ptr %35, align 4, !tbaa !167
  %.not = icmp eq i32 %36, 0
  br i1 %.not, label %37, label %91

37:                                               ; preds = %put_bits.exit
  %.not8 = icmp eq i32 %3, 0
  br i1 %.not8, label %63, label %38

38:                                               ; preds = %37
  %39 = sub nuw nsw i32 2, %4
  %40 = icmp sgt i32 %.0.i.i, 2
  br i1 %40, label %41, label %44

41:                                               ; preds = %38
  %42 = shl i32 %.026.i.i, 2
  %43 = or disjoint i32 %42, %39
  br label %put_bits.exit12

44:                                               ; preds = %38
  %45 = getelementptr inbounds nuw i8, ptr %0, i64 4832
  %46 = load ptr, ptr %45, align 8, !tbaa !54
  %47 = getelementptr inbounds nuw i8, ptr %0, i64 4824
  %48 = load ptr, ptr %47, align 8, !tbaa !55
  %49 = ptrtoint ptr %46 to i64
  %50 = ptrtoint ptr %48 to i64
  %51 = sub i64 %49, %50
  %52 = icmp ugt i64 %51, 3
  br i1 %52, label %53, label %61

53:                                               ; preds = %44
  %54 = shl i32 %.026.i.i, %.0.i.i
  %55 = sub nsw i32 2, %.0.i.i
  %56 = lshr i32 %39, %55
  %57 = or i32 %56, %54
  %58 = tail call i32 @llvm.bswap.i32(i32 %57)
  store i32 %58, ptr %48, align 1, !tbaa !4
  %59 = load ptr, ptr %47, align 8, !tbaa !55
  %60 = getelementptr inbounds nuw i8, ptr %59, i64 4
  store ptr %60, ptr %47, align 8, !tbaa !55
  br label %put_bits.exit12

61:                                               ; preds = %44
  tail call void (ptr, i32, ptr, ...) @av_log(ptr noundef null, i32 noundef 16, ptr noundef nonnull @.str.5) #10
  br label %put_bits.exit12

put_bits.exit12:                                  ; preds = %53, %61, %41
  %.sink = phi i32 [ -2, %41 ], [ 30, %61 ], [ 30, %53 ]
  %.026.i.i10 = phi i32 [ %43, %41 ], [ %39, %61 ], [ %39, %53 ]
  %62 = add nsw i32 %.0.i.i, %.sink
  store i32 %.026.i.i10, ptr %6, align 8, !tbaa !53
  store i32 %62, ptr %8, align 4, !tbaa !52
  br label %63

63:                                               ; preds = %put_bits.exit12, %37
  %64 = phi i32 [ %62, %put_bits.exit12 ], [ %.0.i.i, %37 ]
  %65 = phi i32 [ %.026.i.i10, %put_bits.exit12 ], [ %.026.i.i, %37 ]
  %66 = getelementptr inbounds nuw i8, ptr %0, i64 4276
  %67 = load i32, ptr %66, align 4, !tbaa !194
  %68 = icmp sgt i32 %64, 1
  br i1 %68, label %69, label %72

69:                                               ; preds = %63
  %70 = shl i32 %65, 1
  %71 = or i32 %70, %67
  br label %put_bits.exit16

72:                                               ; preds = %63
  %73 = getelementptr inbounds nuw i8, ptr %0, i64 4832
  %74 = load ptr, ptr %73, align 8, !tbaa !54
  %75 = getelementptr inbounds nuw i8, ptr %0, i64 4824
  %76 = load ptr, ptr %75, align 8, !tbaa !55
  %77 = ptrtoint ptr %74 to i64
  %78 = ptrtoint ptr %76 to i64
  %79 = sub i64 %77, %78
  %80 = icmp ugt i64 %79, 3
  br i1 %80, label %81, label %89

81:                                               ; preds = %72
  %82 = shl i32 %65, %64
  %83 = sub nsw i32 1, %64
  %84 = lshr i32 %67, %83
  %85 = or i32 %84, %82
  %86 = tail call i32 @llvm.bswap.i32(i32 %85)
  store i32 %86, ptr %76, align 1, !tbaa !4
  %87 = load ptr, ptr %75, align 8, !tbaa !55
  %88 = getelementptr inbounds nuw i8, ptr %87, i64 4
  store ptr %88, ptr %75, align 8, !tbaa !55
  br label %put_bits.exit16

89:                                               ; preds = %72
  tail call void (ptr, i32, ptr, ...) @av_log(ptr noundef null, i32 noundef 16, ptr noundef nonnull @.str.5) #10
  br label %put_bits.exit16

put_bits.exit16:                                  ; preds = %81, %89, %69
  %.sink17 = phi i32 [ -1, %69 ], [ 31, %89 ], [ 31, %81 ]
  %.026.i.i14 = phi i32 [ %71, %69 ], [ %67, %89 ], [ %67, %81 ]
  %90 = add nsw i32 %64, %.sink17
  store i32 %.026.i.i14, ptr %6, align 8, !tbaa !53
  store i32 %90, ptr %8, align 4, !tbaa !52
  br label %91

91:                                               ; preds = %put_bits.exit16, %put_bits.exit
  ret void
}